target datalayout = "e-m:e-p270:32:32-p271:32:32-p272:64:64-i64:64-i128:128-f80:128-n8:16:32:64-S128"
target triple = "x86_64-pc-linux-gnu"

@libctx = internal global ptr null, align 8
@.str.14 = private unnamed_addr constant [30 x i8] c"../openssl/test/quicapitest.c\00", align 1
@cert = internal global ptr null, align 8
@privkey = internal global ptr null, align 8
@.str.62 = private unnamed_addr constant [5 x i8] c"cctx\00", align 1
@.str.67 = private unnamed_addr constant [49 x i8] c"qtest_create_quic_connection(qtserv, clientquic)\00", align 1
@.str.80 = private unnamed_addr constant [29 x i8] c"SSL_get_error(clientquic, 0)\00", align 1
@.str.248 = private unnamed_addr constant [104 x i8] c"qtest_create_quic_objects(libctx, cctx, NULL, cert, privkey, flags, &qtserv, &clientquic, &fault, NULL)\00", align 1
@.str.255 = private unnamed_addr constant [45 x i8] c"msg = OPENSSL_zalloc(TEST_SINGLE_WRITE_SIZE)\00", align 1
@.str.256 = private unnamed_addr constant [49 x i8] c"recvbuf = OPENSSL_zalloc(TEST_SINGLE_WRITE_SIZE)\00", align 1
@.str.257 = private unnamed_addr constant [47 x i8] c"qtest_fault_set_bw_limit(fault, 1000, 1000, 0)\00", align 1
@.str.258 = private unnamed_addr constant [23 x i8] c"Retrying to send: %llu\00", align 1
@.str.259 = private unnamed_addr constant [21 x i8] c"SSL_ERROR_WANT_WRITE\00", align 1
@.str.260 = private unnamed_addr constant [24 x i8] c"Remaining to send: %llu\00", align 1
@.str.261 = private unnamed_addr constant [24 x i8] c"Remaining to recv: %llu\00", align 1
@.str.262 = private unnamed_addr constant [26 x i8] c"No progress on recv: %llu\00", align 1
@.str.263 = private unnamed_addr constant [60 x i8] c"BW limit: %d Bytes/ms Real bandwidth reached: %llu Bytes/ms\00", align 1
@.str.264 = private unnamed_addr constant [8 x i8] c"real_bw\00", align 1
@.str.265 = private unnamed_addr constant [14 x i8] c"TEST_BW_LIMIT\00", align 1

; Function Attrs: nounwind uwtable
define internal i32 @test_bw_limit() #0 {
  %1 = alloca ptr, align 8
  %2 = alloca ptr, align 8
  %3 = alloca ptr, align 8
  %4 = alloca i32, align 4
  %5 = alloca ptr, align 8
  %6 = alloca ptr, align 8
  %7 = alloca i64, align 8
  %8 = alloca i64, align 8
  %9 = alloca i64, align 8
  %10 = alloca i64, align 8
  %11 = alloca i32, align 4
  %12 = alloca ptr, align 8
  %13 = alloca i64, align 8
  call void @llvm.lifetime.start.p0(i64 8, ptr %1) #8
  %14 = load ptr, ptr @libctx, align 8, !tbaa !4
  %15 = call ptr @OSSL_QUIC_client_method()
  %16 = call ptr @SSL_CTX_new_ex(ptr noundef %14, ptr noundef null, ptr noundef %15)
  store ptr %16, ptr %1, align 8, !tbaa !15
  call void @llvm.lifetime.start.p0(i64 8, ptr %2) #8
  store ptr null, ptr %2, align 8, !tbaa !17
  call void @llvm.lifetime.start.p0(i64 8, ptr %3) #8
  store ptr null, ptr %3, align 8, !tbaa !19
  call void @llvm.lifetime.start.p0(i64 4, ptr %4) #8
  store i32 0, ptr %4, align 4, !tbaa !13
  call void @llvm.lifetime.start.p0(i64 8, ptr %5) #8
  store ptr null, ptr %5, align 8, !tbaa !11
  call void @llvm.lifetime.start.p0(i64 8, ptr %6) #8
  store ptr null, ptr %6, align 8, !tbaa !11
  call void @llvm.lifetime.start.p0(i64 8, ptr %7) #8
  store i64 2097152, ptr %7, align 8, !tbaa !21
  call void @llvm.lifetime.start.p0(i64 8, ptr %8) #8
  store i64 2097152, ptr %8, align 8, !tbaa !21
  call void @llvm.lifetime.start.p0(i64 8, ptr %9) #8
  call void @llvm.lifetime.start.p0(i64 8, ptr %10) #8
  call void @llvm.lifetime.start.p0(i64 4, ptr %11) #8
  store i32 6, ptr %11, align 4, !tbaa !13
  call void @llvm.lifetime.start.p0(i64 8, ptr %12) #8
  store ptr null, ptr %12, align 8, !tbaa !45
  call void @llvm.lifetime.start.p0(i64 8, ptr %13) #8
  %17 = load ptr, ptr %1, align 8, !tbaa !15
  %18 = call i32 @test_ptr(ptr noundef @.str.14, i32 noundef 1742, ptr noundef @.str.62, ptr noundef %17)
  %19 = icmp ne i32 %18, 0
  br i1 %19, label %20, label %31

20:                                               ; preds = %0
  %21 = load ptr, ptr @libctx, align 8, !tbaa !4
  %22 = load ptr, ptr %1, align 8, !tbaa !15
  %23 = load ptr, ptr @cert, align 8, !tbaa !11
  %24 = load ptr, ptr @privkey, align 8, !tbaa !11
  %25 = load i32, ptr %11, align 4, !tbaa !13
  %26 = call i32 @qtest_create_quic_objects(ptr noundef %21, ptr noundef %22, ptr noundef null, ptr noundef %23, ptr noundef %24, i32 noundef %25, ptr noundef %3, ptr noundef %2, ptr noundef %12, ptr noundef null)
  %27 = icmp ne i32 %26, 0
  %28 = zext i1 %27 to i32
  %29 = call i32 @test_true(ptr noundef @.str.14, i32 noundef 1746, ptr noundef @.str.248, i32 noundef %28)
  %30 = icmp ne i32 %29, 0
  br i1 %30, label %32, label %31

31:                                               ; preds = %20, %0
  br label %128

32:                                               ; preds = %20
  %33 = call noalias ptr @CRYPTO_zalloc(i64 noundef 16384, ptr noundef @.str.14, i32 noundef 1749)
  store ptr %33, ptr %5, align 8, !tbaa !11
  %34 = call i32 @test_ptr(ptr noundef @.str.14, i32 noundef 1749, ptr noundef @.str.255, ptr noundef %33)
  %35 = icmp ne i32 %34, 0
  br i1 %35, label %36, label %40

36:                                               ; preds = %32
  %37 = call noalias ptr @CRYPTO_zalloc(i64 noundef 16384, ptr noundef @.str.14, i32 noundef 1750)
  store ptr %37, ptr %6, align 8, !tbaa !11
  %38 = call i32 @test_ptr(ptr noundef @.str.14, i32 noundef 1750, ptr noundef @.str.256, ptr noundef %37)
  %39 = icmp ne i32 %38, 0
  br i1 %39, label %41, label %40

40:                                               ; preds = %36, %32
  br label %128

41:                                               ; preds = %36
  %42 = load ptr, ptr %12, align 8, !tbaa !45
  %43 = call i32 @qtest_fault_set_bw_limit(ptr noundef %42, i64 noundef 1000, i64 noundef 1000, i32 noundef 0)
  %44 = icmp ne i32 %43, 0
  %45 = zext i1 %44 to i32
  %46 = call i32 @test_true(ptr noundef @.str.14, i32 noundef 1754, ptr noundef @.str.257, i32 noundef %45)
  %47 = icmp ne i32 %46, 0
  br i1 %47, label %49, label %48

48:                                               ; preds = %41
  br label %128

49:                                               ; preds = %41
  %50 = load ptr, ptr %3, align 8, !tbaa !19
  %51 = load ptr, ptr %2, align 8, !tbaa !17
  %52 = call i32 @qtest_create_quic_connection(ptr noundef %50, ptr noundef %51)
  %53 = icmp ne i32 %52, 0
  %54 = zext i1 %53 to i32
  %55 = call i32 @test_true(ptr noundef @.str.14, i32 noundef 1757, ptr noundef @.str.67, i32 noundef %54)
  %56 = icmp ne i32 %55, 0
  br i1 %56, label %58, label %57

57:                                               ; preds = %49
  br label %128

58:                                               ; preds = %49
  call void @qtest_start_stopwatch()
  br label %59

59:                                               ; preds = %116, %58
  %60 = load i64, ptr %8, align 8, !tbaa !21
  %61 = icmp ugt i64 %60, 0
  br i1 %61, label %62, label %119

62:                                               ; preds = %59
  call void @qtest_add_time(i64 noundef 1)
  %63 = load i64, ptr %7, align 8, !tbaa !21
  %64 = icmp ugt i64 %63, 0
  br i1 %64, label %65, label %91

65:                                               ; preds = %62
  %66 = load ptr, ptr %2, align 8, !tbaa !17
  %67 = load ptr, ptr %5, align 8, !tbaa !11
  %68 = load i64, ptr %7, align 8, !tbaa !21
  %69 = icmp ugt i64 %68, 16384
  br i1 %69, label %70, label %71

70:                                               ; preds = %65
  br label %73

71:                                               ; preds = %65
  %72 = load i64, ptr %7, align 8, !tbaa !21
  br label %73

73:                                               ; preds = %71, %70
  %74 = phi i64 [ 16384, %70 ], [ %72, %71 ]
  %75 = call i32 @SSL_write_ex(ptr noundef %66, ptr noundef %67, i64 noundef %74, ptr noundef %9)
  %76 = icmp ne i32 %75, 0
  br i1 %76, label %85, label %77

77:                                               ; preds = %73
  %78 = load i64, ptr %7, align 8, !tbaa !21
  call void (ptr, i32, ptr, ...) @test_info(ptr noundef @.str.14, i32 noundef 1770, ptr noundef @.str.258, i64 noundef %78)
  %79 = load ptr, ptr %2, align 8, !tbaa !17
  %80 = call i32 @SSL_get_error(ptr noundef %79, i32 noundef 0)
  %81 = call i32 @test_int_eq(ptr noundef @.str.14, i32 noundef 1771, ptr noundef @.str.80, ptr noundef @.str.259, i32 noundef %80, i32 noundef 3)
  %82 = icmp ne i32 %81, 0
  br i1 %82, label %84, label %83

83:                                               ; preds = %77
  br label %128

84:                                               ; preds = %77
  br label %90

85:                                               ; preds = %73
  %86 = load i64, ptr %9, align 8, !tbaa !21
  %87 = load i64, ptr %7, align 8, !tbaa !21
  %88 = sub i64 %87, %86
  store i64 %88, ptr %7, align 8, !tbaa !21
  %89 = load i64, ptr %7, align 8, !tbaa !21
  call void (ptr, i32, ptr, ...) @test_info(ptr noundef @.str.14, i32 noundef 1775, ptr noundef @.str.260, i64 noundef %89)
  br label %90

90:                                               ; preds = %85, %84
  br label %94

91:                                               ; preds = %62
  %92 = load ptr, ptr %2, align 8, !tbaa !17
  %93 = call i32 @SSL_handle_events(ptr noundef %92)
  br label %94

94:                                               ; preds = %91, %90
  %95 = load ptr, ptr %3, align 8, !tbaa !19
  %96 = load ptr, ptr %6, align 8, !tbaa !11
  %97 = load i64, ptr %8, align 8, !tbaa !21
  %98 = icmp ugt i64 %97, 16384
  br i1 %98, label %99, label %100

99:                                               ; preds = %94
  br label %102

100:                                              ; preds = %94
  %101 = load i64, ptr %8, align 8, !tbaa !21
  br label %102

102:                                              ; preds = %100, %99
  %103 = phi i64 [ 16384, %99 ], [ %101, %100 ]
  %104 = call i32 @ossl_quic_tserver_read(ptr noundef %95, i64 noundef 0, ptr noundef %96, i64 noundef %103, ptr noundef %10)
  %105 = icmp ne i32 %104, 0
  br i1 %105, label %106, label %114

106:                                              ; preds = %102
  %107 = load i64, ptr %10, align 8, !tbaa !21
  %108 = icmp ugt i64 %107, 1
  br i1 %108, label %109, label %114

109:                                              ; preds = %106
  %110 = load i64, ptr %10, align 8, !tbaa !21
  %111 = load i64, ptr %8, align 8, !tbaa !21
  %112 = sub i64 %111, %110
  store i64 %112, ptr %8, align 8, !tbaa !21
  %113 = load i64, ptr %8, align 8, !tbaa !21
  call void (ptr, i32, ptr, ...) @test_info(ptr noundef @.str.14, i32 noundef 1787, ptr noundef @.str.261, i64 noundef %113)
  br label %116

114:                                              ; preds = %106, %102
  %115 = load i64, ptr %8, align 8, !tbaa !21
  call void (ptr, i32, ptr, ...) @test_info(ptr noundef @.str.14, i32 noundef 1789, ptr noundef @.str.262, i64 noundef %115)
  br label %116

116:                                              ; preds = %114, %109
  %117 = load ptr, ptr %3, align 8, !tbaa !19
  %118 = call i32 @ossl_quic_tserver_tick(ptr noundef %117)
  br label %59, !llvm.loop !50

119:                                              ; preds = %59
  %120 = call i64 @qtest_get_stopwatch_time()
  %121 = udiv i64 2097152, %120
  store i64 %121, ptr %13, align 8, !tbaa !21
  %122 = load i64, ptr %13, align 8, !tbaa !21
  call void (ptr, i32, ptr, ...) @test_info(ptr noundef @.str.14, i32 noundef 1796, ptr noundef @.str.263, i32 noundef 1000, i64 noundef %122)
  %123 = load i64, ptr %13, align 8, !tbaa !21
  %124 = call i32 @test_uint64_t_lt(ptr noundef @.str.14, i32 noundef 1798, ptr noundef @.str.264, ptr noundef @.str.265, i64 noundef %123, i64 noundef 1000)
  %125 = icmp ne i32 %124, 0
  br i1 %125, label %127, label %126

126:                                              ; preds = %119
  br label %128

127:                                              ; preds = %119
  store i32 1, ptr %4, align 4, !tbaa !13
  br label %128

128:                                              ; preds = %127, %126, %83, %57, %48, %40, %31
  %129 = load ptr, ptr %5, align 8, !tbaa !11
  call void @CRYPTO_free(ptr noundef %129, ptr noundef @.str.14, i32 noundef 1803)
  %130 = load ptr, ptr %6, align 8, !tbaa !11
  call void @CRYPTO_free(ptr noundef %130, ptr noundef @.str.14, i32 noundef 1804)
  %131 = load ptr, ptr %3, align 8, !tbaa !19
  call void @ossl_quic_tserver_free(ptr noundef %131)
  %132 = load ptr, ptr %2, align 8, !tbaa !17
  call void @SSL_free(ptr noundef %132)
  %133 = load ptr, ptr %1, align 8, !tbaa !15
  call void @SSL_CTX_free(ptr noundef %133)
  %134 = load ptr, ptr %12, align 8, !tbaa !45
  call void @qtest_fault_free(ptr noundef %134)
  %135 = load i32, ptr %4, align 4, !tbaa !13
  call void @llvm.lifetime.end.p0(i64 8, ptr %13) #8
  call void @llvm.lifetime.end.p0(i64 8, ptr %12) #8
  call void @llvm.lifetime.end.p0(i64 4, ptr %11) #8
  call void @llvm.lifetime.end.p0(i64 8, ptr %10) #8
  call void @llvm.lifetime.end.p0(i64 8, ptr %9) #8
  call void @llvm.lifetime.end.p0(i64 8, ptr %8) #8
  call void @llvm.lifetime.end.p0(i64 8, ptr %7) #8
  call void @llvm.lifetime.end.p0(i64 8, ptr %6) #8
  call void @llvm.lifetime.end.p0(i64 8, ptr %5) #8
  call void @llvm.lifetime.end.p0(i64 4, ptr %4) #8
  call void @llvm.lifetime.end.p0(i64 8, ptr %3) #8
  call void @llvm.lifetime.end.p0(i64 8, ptr %2) #8
  call void @llvm.lifetime.end.p0(i64 8, ptr %1) #8
  ret i32 %135
}