; Function Attrs: nounwind uwtable
define internal range(i32 0, 2) i32 @test_bw_limit() #1 {
  %1 = alloca ptr, align 8
  %2 = alloca ptr, align 8
  %3 = alloca i64, align 8
  %4 = alloca i64, align 8
  %5 = alloca ptr, align 8
  %6 = load ptr, ptr @libctx, align 8, !tbaa !4
  %7 = tail call ptr @OSSL_QUIC_client_method() #10
  %8 = tail call ptr @SSL_CTX_new_ex(ptr noundef %6, ptr noundef null, ptr noundef %7) #10
  call void @llvm.lifetime.start.p0(i64 8, ptr nonnull %1) #10
  store ptr null, ptr %1, align 8, !tbaa !13
  call void @llvm.lifetime.start.p0(i64 8, ptr nonnull %2) #10
  store ptr null, ptr %2, align 8, !tbaa !15
  call void @llvm.lifetime.start.p0(i64 8, ptr nonnull %3) #10
  call void @llvm.lifetime.start.p0(i64 8, ptr nonnull %4) #10
  call void @llvm.lifetime.start.p0(i64 8, ptr nonnull %5) #10
  store ptr null, ptr %5, align 8, !tbaa !42
  %9 = tail call i32 @test_ptr(ptr noundef nonnull @.str.14, i32 noundef 1742, ptr noundef nonnull @.str.62, ptr noundef %8) #10
  %.not = icmp eq i32 %9, 0
  br i1 %.not, label %.loopexit, label %10

10:                                               ; preds = %0
  %11 = load ptr, ptr @libctx, align 8, !tbaa !4
  %12 = load ptr, ptr @cert, align 8, !tbaa !11
  %13 = load ptr, ptr @privkey, align 8, !tbaa !11
  %14 = call i32 @qtest_create_quic_objects(ptr noundef %11, ptr noundef %8, ptr noundef null, ptr noundef %12, ptr noundef %13, i32 noundef 6, ptr noundef nonnull %2, ptr noundef nonnull %1, ptr noundef nonnull %5, ptr noundef null) #10
  %15 = icmp ne i32 %14, 0
  %16 = zext i1 %15 to i32
  %17 = call i32 @test_true(ptr noundef nonnull @.str.14, i32 noundef 1746, ptr noundef nonnull @.str.248, i32 noundef %16) #10
  %.not29 = icmp eq i32 %17, 0
  br i1 %.not29, label %.loopexit, label %18

18:                                               ; preds = %10
  %19 = call noalias ptr @CRYPTO_zalloc(i64 noundef 16384, ptr noundef nonnull @.str.14, i32 noundef 1749) #10
  %20 = call i32 @test_ptr(ptr noundef nonnull @.str.14, i32 noundef 1749, ptr noundef nonnull @.str.255, ptr noundef %19) #10
  %.not30 = icmp eq i32 %20, 0
  br i1 %.not30, label %.loopexit, label %21

21:                                               ; preds = %18
  %22 = call noalias ptr @CRYPTO_zalloc(i64 noundef 16384, ptr noundef nonnull @.str.14, i32 noundef 1750) #10
  %23 = call i32 @test_ptr(ptr noundef nonnull @.str.14, i32 noundef 1750, ptr noundef nonnull @.str.256, ptr noundef %22) #10
  %.not31 = icmp eq i32 %23, 0
  br i1 %.not31, label %.loopexit, label %24

24:                                               ; preds = %21
  %25 = load ptr, ptr %5, align 8, !tbaa !42
  %26 = call i32 @qtest_fault_set_bw_limit(ptr noundef %25, i64 noundef 1000, i64 noundef 1000, i32 noundef 0) #10
  %27 = icmp ne i32 %26, 0
  %28 = zext i1 %27 to i32
  %29 = call i32 @test_true(ptr noundef nonnull @.str.14, i32 noundef 1754, ptr noundef nonnull @.str.257, i32 noundef %28) #10
  %.not32 = icmp eq i32 %29, 0
  br i1 %.not32, label %.loopexit, label %30

30:                                               ; preds = %24
  %31 = load ptr, ptr %2, align 8, !tbaa !15
  %32 = load ptr, ptr %1, align 8, !tbaa !13
  %33 = call i32 @qtest_create_quic_connection(ptr noundef %31, ptr noundef %32) #10
  %34 = icmp ne i32 %33, 0
  %35 = zext i1 %34 to i32
  %36 = call i32 @test_true(ptr noundef nonnull @.str.14, i32 noundef 1757, ptr noundef nonnull @.str.67, i32 noundef %35) #10
  %.not33 = icmp eq i32 %36, 0
  br i1 %.not33, label %.loopexit, label %37

37:                                               ; preds = %30
  call void @qtest_start_stopwatch() #10
  br label %38

38:                                               ; preds = %37, %62
  %.02440 = phi i64 [ 2097152, %37 ], [ %.1, %62 ]
  %.02539 = phi i64 [ 2097152, %37 ], [ %.126, %62 ]
  call void @qtest_add_time(i64 noundef 1) #10
  %.not36 = icmp eq i64 %.02539, 0
  %39 = load ptr, ptr %1, align 8, !tbaa !13
  br i1 %.not36, label %50, label %40

40:                                               ; preds = %38
  %41 = call i64 @llvm.umin.i64(i64 %.02539, i64 16384)
  %42 = call i32 @SSL_write_ex(ptr noundef %39, ptr noundef %19, i64 noundef %41, ptr noundef nonnull %3) #10
  %.not37 = icmp eq i32 %42, 0
  br i1 %.not37, label %43, label %47

43:                                               ; preds = %40
  call void (ptr, i32, ptr, ...) @test_info(ptr noundef nonnull @.str.14, i32 noundef 1770, ptr noundef nonnull @.str.258, i64 noundef %.02539) #10
  %44 = load ptr, ptr %1, align 8, !tbaa !13
  %45 = call i32 @SSL_get_error(ptr noundef %44, i32 noundef 0) #10
  %46 = call i32 @test_int_eq(ptr noundef nonnull @.str.14, i32 noundef 1771, ptr noundef nonnull @.str.80, ptr noundef nonnull @.str.259, i32 noundef %45, i32 noundef 3) #10
  %.not38 = icmp eq i32 %46, 0
  br i1 %.not38, label %.loopexit, label %52

47:                                               ; preds = %40
  %48 = load i64, ptr %3, align 8, !tbaa !17
  %49 = sub i64 %.02539, %48
  call void (ptr, i32, ptr, ...) @test_info(ptr noundef nonnull @.str.14, i32 noundef 1775, ptr noundef nonnull @.str.260, i64 noundef %49) #10
  br label %52

50:                                               ; preds = %38
  %51 = call i32 @SSL_handle_events(ptr noundef %39) #10
  br label %52

52:                                               ; preds = %47, %43, %50
  %.126 = phi i64 [ %49, %47 ], [ %.02539, %43 ], [ 0, %50 ]
  %53 = load ptr, ptr %2, align 8, !tbaa !15
  %54 = call i64 @llvm.umin.i64(i64 %.02440, i64 16384)
  %55 = call i32 @ossl_quic_tserver_read(ptr noundef %53, i64 noundef 0, ptr noundef %22, i64 noundef %54, ptr noundef nonnull %4) #10
  %56 = icmp ne i32 %55, 0
  %57 = load i64, ptr %4, align 8
  %58 = icmp ugt i64 %57, 1
  %or.cond = select i1 %56, i1 %58, i1 false
  br i1 %or.cond, label %59, label %61

59:                                               ; preds = %52
  %60 = sub i64 %.02440, %57
  call void (ptr, i32, ptr, ...) @test_info(ptr noundef nonnull @.str.14, i32 noundef 1787, ptr noundef nonnull @.str.261, i64 noundef %60) #10
  br label %62

61:                                               ; preds = %52
  call void (ptr, i32, ptr, ...) @test_info(ptr noundef nonnull @.str.14, i32 noundef 1789, ptr noundef nonnull @.str.262, i64 noundef %.02440) #10
  br label %62

62:                                               ; preds = %61, %59
  %.1 = phi i64 [ %60, %59 ], [ %.02440, %61 ]
  %63 = load ptr, ptr %2, align 8, !tbaa !15
  %64 = call i32 @ossl_quic_tserver_tick(ptr noundef %63) #10
  %.not34 = icmp eq i64 %.1, 0
  br i1 %.not34, label %65, label %38, !llvm.loop !49

65:                                               ; preds = %62
  %66 = call i64 @qtest_get_stopwatch_time() #10
  %67 = udiv i64 2097152, %66
  call void (ptr, i32, ptr, ...) @test_info(ptr noundef nonnull @.str.14, i32 noundef 1796, ptr noundef nonnull @.str.263, i32 noundef 1000, i64 noundef %67) #10
  %68 = call i32 @test_uint64_t_lt(ptr noundef nonnull @.str.14, i32 noundef 1798, ptr noundef nonnull @.str.264, ptr noundef nonnull @.str.265, i64 noundef %67, i64 noundef 1000) #10
  %.not35 = icmp ne i32 %68, 0
  %spec.select = zext i1 %.not35 to i32
  br label %.loopexit

.loopexit:                                        ; preds = %43, %65, %30, %24, %18, %21, %0, %10
  %.027 = phi ptr [ %22, %30 ], [ %22, %24 ], [ %22, %21 ], [ null, %18 ], [ null, %10 ], [ null, %0 ], [ %22, %65 ], [ %22, %43 ]
  %.023 = phi ptr [ %19, %30 ], [ %19, %24 ], [ %19, %21 ], [ %19, %18 ], [ null, %10 ], [ null, %0 ], [ %19, %65 ], [ %19, %43 ]
  %.0 = phi i32 [ 0, %30 ], [ 0, %24 ], [ 0, %21 ], [ 0, %18 ], [ 0, %10 ], [ 0, %0 ], [ %spec.select, %65 ], [ 0, %43 ]
  call void @CRYPTO_free(ptr noundef %.023, ptr noundef nonnull @.str.14, i32 noundef 1803) #10
  call void @CRYPTO_free(ptr noundef %.027, ptr noundef nonnull @.str.14, i32 noundef 1804) #10
  %69 = load ptr, ptr %2, align 8, !tbaa !15
  call void @ossl_quic_tserver_free(ptr noundef %69) #10
  %70 = load ptr, ptr %1, align 8, !tbaa !13
  call void @SSL_free(ptr noundef %70) #10
  call void @SSL_CTX_free(ptr noundef %8) #10
  %71 = load ptr, ptr %5, align 8, !tbaa !42
  call void @qtest_fault_free(ptr noundef %71) #10
  call void @llvm.lifetime.end.p0(i64 8, ptr nonnull %5) #10
  call void @llvm.lifetime.end.p0(i64 8, ptr nonnull %4) #10
  call void @llvm.lifetime.end.p0(i64 8, ptr nonnull %3) #10
  call void @llvm.lifetime.end.p0(i64 8, ptr nonnull %2) #10
  call void @llvm.lifetime.end.p0(i64 8, ptr nonnull %1) #10
  ret i32 %.0
}